; Function Attrs: mustprogress uwtable
define hidden void @_ZN13defined_names13mk_definitionEP4exprP3app(ptr dead_on_unwind noalias writable sret(%class.obj_ref) align 8 initializes((0, 16)) %0, ptr noundef nonnull readonly align 8 captures(none) dereferenceable(16) %1, ptr noundef %2, ptr noundef %3) local_unnamed_addr #3 align 2 personality ptr @__gxx_personality_v0 {
  %5 = alloca %class.ref_buffer, align 8
  %6 = alloca %class.buffer.49, align 8
  %7 = load ptr, ptr %1, align 8, !tbaa !225
  %8 = getelementptr inbounds nuw i8, ptr %7, i64 8
  %9 = load ptr, ptr %8, align 8, !tbaa !74
  call void @llvm.lifetime.start.p0(i64 152, ptr nonnull %5) #19
  %10 = ptrtoint ptr %9 to i64
  store i64 %10, ptr %5, align 8, !tbaa !6
  %11 = getelementptr inbounds nuw i8, ptr %5, i64 8
  %12 = getelementptr inbounds nuw i8, ptr %5, i64 24
  store ptr %12, ptr %11, align 8, !tbaa !67
  %13 = getelementptr inbounds nuw i8, ptr %5, i64 16
  store i32 0, ptr %13, align 8, !tbaa !69
  %14 = getelementptr inbounds nuw i8, ptr %5, i64 20
  store i32 16, ptr %14, align 4, !tbaa !70
  store ptr null, ptr %0, align 8, !tbaa !159
  %15 = getelementptr inbounds nuw i8, ptr %0, i64 8
  store ptr %9, ptr %15, align 8, !tbaa !6
  call void @llvm.lifetime.start.p0(i64 144, ptr nonnull %6) #19
  %16 = getelementptr inbounds nuw i8, ptr %6, i64 16
  store ptr %16, ptr %6, align 8, !tbaa !148
  %17 = getelementptr inbounds nuw i8, ptr %6, i64 8
  store i32 0, ptr %17, align 8, !tbaa !145
  %18 = getelementptr inbounds nuw i8, ptr %6, i64 12
  store i32 16, ptr %18, align 4, !tbaa !147
  %19 = load ptr, ptr %7, align 8, !tbaa !3
  %20 = getelementptr inbounds nuw i8, ptr %19, i64 16
  %21 = load ptr, ptr %20, align 8
  invoke void %21(ptr noundef nonnull align 8 dereferenceable(128) %7, ptr noundef %2, ptr noundef %3, ptr noundef nonnull align 8 dereferenceable(152) %5, ptr noundef nonnull align 8 dereferenceable(144) %6, ptr noundef nonnull align 8 dereferenceable(16) %0)
          to label %22 unwind label %52

22:                                               ; preds = %4
  %23 = load ptr, ptr %6, align 8, !tbaa !148
  %.not.i.i.i = icmp eq ptr %23, %16
  %24 = icmp eq ptr %23, null
  %or.cond.i.i.i = or i1 %.not.i.i.i, %24
  br i1 %or.cond.i.i.i, label %_ZN6bufferI6symbolLb1ELj16EED2Ev.exit, label %25

25:                                               ; preds = %22
  invoke void @_ZN6memory10deallocateEPv(ptr noundef nonnull %23)
          to label %_ZN6bufferI6symbolLb1ELj16EED2Ev.exit unwind label %26

26:                                               ; preds = %25
  %27 = landingpad { ptr, i32 }
          catch ptr null
  %28 = extractvalue { ptr, i32 } %27, 0
  call void @__clang_call_terminate(ptr %28) #20
  unreachable

_ZN6bufferI6symbolLb1ELj16EED2Ev.exit:            ; preds = %22, %25
  call void @llvm.lifetime.end.p0(i64 144, ptr nonnull %6) #19
  %29 = load ptr, ptr %11, align 8, !tbaa !67
  %30 = load i32, ptr %13, align 8, !tbaa !69
  %31 = zext i32 %30 to i64
  %32 = getelementptr inbounds nuw ptr, ptr %29, i64 %31
  %.not.i = icmp eq i32 %30, 0
  br i1 %.not.i, label %_ZN15ref_buffer_coreI4sort19ref_manager_wrapperIS0_11ast_managerELj16EE13dec_range_refEPKPS0_S7_.exit.i, label %.lr.ph.i.i

.lr.ph.i.i:                                       ; preds = %_ZN6bufferI6symbolLb1ELj16EED2Ev.exit, %_ZN15ref_buffer_coreI4sort19ref_manager_wrapperIS0_11ast_managerELj16EE7dec_refEPS0_.exit.i.i
  %.06.i.i = phi ptr [ %41, %_ZN15ref_buffer_coreI4sort19ref_manager_wrapperIS0_11ast_managerELj16EE7dec_refEPS0_.exit.i.i ], [ %29, %_ZN6bufferI6symbolLb1ELj16EED2Ev.exit ]
  %33 = load ptr, ptr %.06.i.i, align 8, !tbaa !71
  %34 = load ptr, ptr %5, align 8, !tbaa !220
  %.not.i.i.i.i.i = icmp eq ptr %33, null
  br i1 %.not.i.i.i.i.i, label %_ZN15ref_buffer_coreI4sort19ref_manager_wrapperIS0_11ast_managerELj16EE7dec_refEPS0_.exit.i.i, label %35

35:                                               ; preds = %.lr.ph.i.i
  %36 = getelementptr inbounds nuw i8, ptr %33, i64 8
  %37 = load i32, ptr %36, align 4, !tbaa !35
  %38 = add i32 %37, -1
  store i32 %38, ptr %36, align 4, !tbaa !35
  %39 = icmp eq i32 %38, 0
  br i1 %39, label %40, label %_ZN15ref_buffer_coreI4sort19ref_manager_wrapperIS0_11ast_managerELj16EE7dec_refEPS0_.exit.i.i

40:                                               ; preds = %35
  invoke void @_ZN11ast_manager11delete_nodeEP3ast(ptr noundef nonnull align 8 dereferenceable(976) %34, ptr noundef nonnull %33)
          to label %_ZN15ref_buffer_coreI4sort19ref_manager_wrapperIS0_11ast_managerELj16EE7dec_refEPS0_.exit.i.i unwind label %49

_ZN15ref_buffer_coreI4sort19ref_manager_wrapperIS0_11ast_managerELj16EE7dec_refEPS0_.exit.i.i: ; preds = %40, %35, %.lr.ph.i.i
  %41 = getelementptr inbounds nuw i8, ptr %.06.i.i, i64 8
  %42 = icmp ult ptr %41, %32
  br i1 %42, label %.lr.ph.i.i, label %_ZN15ref_buffer_coreI4sort19ref_manager_wrapperIS0_11ast_managerELj16EE13dec_range_refEPKPS0_S7_.exit.loopexit.i, !llvm.loop !222

_ZN15ref_buffer_coreI4sort19ref_manager_wrapperIS0_11ast_managerELj16EE13dec_range_refEPKPS0_S7_.exit.loopexit.i: ; preds = %_ZN15ref_buffer_coreI4sort19ref_manager_wrapperIS0_11ast_managerELj16EE7dec_refEPS0_.exit.i.i
  %.pre.i = load ptr, ptr %11, align 8, !tbaa !67
  br label %_ZN15ref_buffer_coreI4sort19ref_manager_wrapperIS0_11ast_managerELj16EE13dec_range_refEPKPS0_S7_.exit.i

_ZN15ref_buffer_coreI4sort19ref_manager_wrapperIS0_11ast_managerELj16EE13dec_range_refEPKPS0_S7_.exit.i: ; preds = %_ZN15ref_buffer_coreI4sort19ref_manager_wrapperIS0_11ast_managerELj16EE13dec_range_refEPKPS0_S7_.exit.loopexit.i, %_ZN6bufferI6symbolLb1ELj16EED2Ev.exit
  %43 = phi ptr [ %.pre.i, %_ZN15ref_buffer_coreI4sort19ref_manager_wrapperIS0_11ast_managerELj16EE13dec_range_refEPKPS0_S7_.exit.loopexit.i ], [ %29, %_ZN6bufferI6symbolLb1ELj16EED2Ev.exit ]
  %.not.i.i.i.i = icmp eq ptr %43, %12
  %44 = icmp eq ptr %43, null
  %or.cond.i.i.i.i = or i1 %.not.i.i.i.i, %44
  br i1 %or.cond.i.i.i.i, label %_ZN15ref_buffer_coreI4sort19ref_manager_wrapperIS0_11ast_managerELj16EED2Ev.exit, label %45

45:                                               ; preds = %_ZN15ref_buffer_coreI4sort19ref_manager_wrapperIS0_11ast_managerELj16EE13dec_range_refEPKPS0_S7_.exit.i
  invoke void @_ZN6memory10deallocateEPv(ptr noundef nonnull %43)
          to label %_ZN15ref_buffer_coreI4sort19ref_manager_wrapperIS0_11ast_managerELj16EED2Ev.exit unwind label %46

46:                                               ; preds = %45
  %47 = landingpad { ptr, i32 }
          catch ptr null
  %48 = extractvalue { ptr, i32 } %47, 0
  call void @__clang_call_terminate(ptr %48) #20
  unreachable

49:                                               ; preds = %40
  %50 = landingpad { ptr, i32 }
          catch ptr null
  %51 = extractvalue { ptr, i32 } %50, 0
  call void @__clang_call_terminate(ptr %51) #20
  unreachable

_ZN15ref_buffer_coreI4sort19ref_manager_wrapperIS0_11ast_managerELj16EED2Ev.exit: ; preds = %_ZN15ref_buffer_coreI4sort19ref_manager_wrapperIS0_11ast_managerELj16EE13dec_range_refEPKPS0_S7_.exit.i, %45
  call void @llvm.lifetime.end.p0(i64 152, ptr nonnull %5) #19
  ret void

52:                                               ; preds = %4
  %53 = landingpad { ptr, i32 }
          cleanup
  call void @_ZN6bufferI6symbolLb1ELj16EED2Ev(ptr noundef nonnull align 8 dereferenceable(144) %6) #19
  call void @llvm.lifetime.end.p0(i64 144, ptr nonnull %6) #19
  call void @_ZN7obj_refI4expr11ast_managerED2Ev(ptr noundef nonnull align 8 dereferenceable(16) %0) #19
  call void @_ZN15ref_buffer_coreI4sort19ref_manager_wrapperIS0_11ast_managerELj16EED2Ev(ptr noundef nonnull align 8 dereferenceable(152) %5) #19
  call void @llvm.lifetime.end.p0(i64 152, ptr nonnull %5) #19
  resume { ptr, i32 } %53
}